target datalayout = "e-m:e-p270:32:32-p271:32:32-p272:64:64-i64:64-i128:128-f80:128-n8:16:32:64-S128"
target triple = "x86_64-pc-linux-gnu"

%"struct.c4::yml::Callbacks" = type { ptr, ptr, ptr, ptr }
%"struct.c4::basic_substring.0" = type { ptr, i64 }
%"struct.c4::basic_substring" = type { ptr, i64 }
%"struct.c4::yml::Location" = type { %"struct.c4::yml::LineCol", %"struct.c4::basic_substring.0" }
%"struct.c4::yml::LineCol" = type { i64, i64, i64 }
%"class.c4::yml::Parser" = type { %"struct.c4::yml::ParserOptions", %"struct.c4::basic_substring.0", %"struct.c4::basic_substring", i64, ptr, %"class.c4::yml::detail::stack.5", ptr, i64, i64, %"struct.c4::basic_substring.0", %"struct.c4::basic_substring.0", i64, %"struct.c4::basic_substring.0", i8, i64, %"struct.c4::basic_substring.0", i64, %"struct.c4::basic_substring.0", %"struct.c4::basic_substring", ptr, i64, i64, %"struct.c4::basic_substring.0" }
%"struct.c4::yml::ParserOptions" = type { i32 }
%"class.c4::yml::detail::stack.5" = type { [16 x %"struct.c4::yml::Parser::State"], ptr, i64, i64, %"struct.c4::yml::Callbacks" }
%"struct.c4::yml::Parser::State" = type { i32, i64, i64, %"struct.c4::basic_substring.0", i64, %"struct.c4::yml::Location", %"struct.c4::yml::Parser::LineContents", i64 }
%"struct.c4::yml::Parser::LineContents" = type { %"struct.c4::basic_substring.0", %"struct.c4::basic_substring.0", %"struct.c4::basic_substring.0", i64 }

; Function Attrs: alwaysinline mustprogress nounwind willreturn memory(read) uwtable
define linkonce_odr noundef zeroext i1 @_ZNK2c415basic_substringIKcE5emptyEv(ptr noundef nonnull align 8 dereferenceable(16) %0) #4 comdat align 2 {
  %2 = alloca ptr, align 8
  store ptr %0, ptr %2, align 8, !tbaa !45
  %3 = load ptr, ptr %2, align 8
  %4 = getelementptr inbounds nuw %"struct.c4::basic_substring.0", ptr %3, i32 0, i32 1
  %5 = load i64, ptr %4, align 8, !tbaa !39
  %6 = icmp eq i64 %5, 0
  br i1 %6, label %11, label %7

7:                                                ; preds = %1
  %8 = getelementptr inbounds nuw %"struct.c4::basic_substring.0", ptr %3, i32 0, i32 0
  %9 = load ptr, ptr %8, align 8, !tbaa !37
  %10 = icmp eq ptr %9, null
  br label %11

11:                                               ; preds = %7, %1
  %12 = phi i1 [ true, %1 ], [ %10, %7 ]
  ret i1 %12
}

; Function Attrs: mustprogress nounwind uwtable
define noundef zeroext i1 @_ZNK2c43yml6Parser14_finished_lineEv(ptr noundef nonnull align 8 dereferenceable(2736) %0) #0 align 2 {
  %2 = alloca ptr, align 8
  store ptr %0, ptr %2, align 8, !tbaa !218
  %3 = load ptr, ptr %2, align 8
  %4 = getelementptr inbounds nuw %"class.c4::yml::Parser", ptr %3, i32 0, i32 6
  %5 = load ptr, ptr %4, align 8, !tbaa !234
  %6 = getelementptr inbounds nuw %"struct.c4::yml::Parser::State", ptr %5, i32 0, i32 6
  %7 = getelementptr inbounds nuw %"struct.c4::yml::Parser::LineContents", ptr %6, i32 0, i32 2
  %8 = call noundef zeroext i1 @_ZNK2c415basic_substringIKcE5emptyEv(ptr noundef nonnull align 8 dereferenceable(16) %7) #26
  ret i1 %8
}