; Function Attrs: mustprogress nofree norecurse nosync nounwind willreturn memory(read, inaccessiblemem: none) uwtable
define noundef zeroext i1 @_ZNK2c43yml6Parser14_finished_lineEv(ptr noundef nonnull readonly align 8 captures(none) dereferenceable(2736) %0) local_unnamed_addr #29 align 2 {
  %2 = getelementptr inbounds nuw i8, ptr %0, i64 2544
  %3 = load ptr, ptr %2, align 8, !tbaa !260
  %4 = getelementptr inbounds nuw i8, ptr %3, i64 120
  %5 = getelementptr inbounds nuw i8, ptr %3, i64 128
  %6 = load i64, ptr %5, align 8, !tbaa !56
  %7 = icmp eq i64 %6, 0
  %8 = load ptr, ptr %4, align 8
  %9 = icmp eq ptr %8, null
  %10 = select i1 %7, i1 true, i1 %9
  ret i1 %10
}